; Function Attrs: mustprogress nounwind uwtable
define hidden noundef ptr @_ZN10ArrayKlass19array_klass_or_nullEi(ptr noundef nonnull align 8 dereferenceable(216) %0, i32 noundef %1) unnamed_addr #0 align 2 {
  %3 = getelementptr inbounds i8, ptr %0, i64 196
  %4 = load i32, ptr %3, align 4
  %5 = icmp eq i32 %4, %1
  br i1 %5, label %16, label %6

6:                                                ; preds = %2
  %7 = getelementptr inbounds i8, ptr %0, i64 200
  %8 = load volatile ptr, ptr %7, align 8
  tail call void asm sideeffect "", "~{memory},~{dirflag},~{fpsr},~{flags}"() #13, !srcloc !6
  %9 = icmp eq ptr %8, null
  br i1 %9, label %16, label %10

10:                                               ; preds = %6
  %11 = load volatile ptr, ptr %7, align 8
  %12 = load ptr, ptr %11, align 8
  %13 = getelementptr inbounds i8, ptr %12, i64 216
  %14 = load ptr, ptr %13, align 8
  %15 = tail call noundef ptr %14(ptr noundef nonnull align 8 dereferenceable(216) %11, i32 noundef %1) #13
  br label %16

16:                                               ; preds = %6, %2, %10
  %.0 = phi ptr [ %15, %10 ], [ %0, %2 ], [ null, %6 ]
  ret ptr %.0
}